target datalayout = "e-m:e-p270:32:32-p271:32:32-p272:64:64-i64:64-i128:128-f80:128-n8:16:32:64-S128"
target triple = "x86_64-pc-linux-gnu"

%struct.shm_mq_iovec = type { ptr, i64 }

; Function Attrs: nounwind uwtable
define dso_local i32 @shm_mq_send(ptr noundef %0, i64 noundef %1, ptr noundef %2, i1 noundef zeroext %3, i1 noundef zeroext %4) #0 {
  %6 = alloca ptr, align 8
  %7 = alloca i64, align 8
  %8 = alloca ptr, align 8
  %9 = alloca i8, align 1
  %10 = alloca i8, align 1
  %11 = alloca %struct.shm_mq_iovec, align 8
  store ptr %0, ptr %6, align 8
  store i64 %1, ptr %7, align 8
  store ptr %2, ptr %8, align 8
  %12 = zext i1 %3 to i8
  store i8 %12, ptr %9, align 1
  %13 = zext i1 %4 to i8
  store i8 %13, ptr %10, align 1
  call void @llvm.lifetime.start.p0(i64 16, ptr %11) #8
  %14 = load ptr, ptr %8, align 8
  %15 = getelementptr inbounds nuw %struct.shm_mq_iovec, ptr %11, i32 0, i32 0
  store ptr %14, ptr %15, align 8
  %16 = load i64, ptr %7, align 8
  %17 = getelementptr inbounds nuw %struct.shm_mq_iovec, ptr %11, i32 0, i32 1
  store i64 %16, ptr %17, align 8
  %18 = load ptr, ptr %6, align 8
  %19 = load i8, ptr %9, align 1, !range !10, !noundef !11
  %20 = trunc i8 %19 to i1
  %21 = load i8, ptr %10, align 1, !range !10, !noundef !11
  %22 = trunc i8 %21 to i1
  %23 = call i32 @shm_mq_sendv(ptr noundef %18, ptr noundef %11, i32 noundef 1, i1 noundef zeroext %20, i1 noundef zeroext %22)
  call void @llvm.lifetime.end.p0(i64 16, ptr %11) #8
  ret i32 %23
}