; Function Attrs: nounwind uwtable
define dso_local range(i32 0, 3) i32 @shm_mq_send(ptr noundef captures(none) %0, i64 noundef %1, ptr noundef %2, i1 noundef zeroext %3, i1 noundef zeroext %4) local_unnamed_addr #0 {
  %6 = alloca %struct.shm_mq_iovec, align 8
  call void @llvm.lifetime.start.p0(i64 16, ptr nonnull %6) #11
  store ptr %2, ptr %6, align 8
  %7 = getelementptr inbounds nuw i8, ptr %6, i64 8
  store i64 %1, ptr %7, align 8
  %8 = call i32 @shm_mq_sendv(ptr noundef %0, ptr noundef nonnull %6, i32 noundef 1, i1 noundef zeroext %3, i1 noundef zeroext %4)
  call void @llvm.lifetime.end.p0(i64 16, ptr nonnull %6) #11
  ret i32 %8
}